Certificate:
    Data:
        Version: 3 (0x2)
        Serial Number:
            65:e3:85:47:85:44:8f:33:68:c6:c5:c4:f4:d9:1b:3d:30:42:28:a5
        Signature Algorithm: ecdsa-with-SHA256
        Issuer: C = FR, L = Limoges, O = TMC, OU = IOT, CN = ACTMC
        Validity
            Not Before: Jan  1 18:47:11 2020 GMT
            Not After : Jan 31 18:47:11 2020 GMT
        Subject: C = FR, L = Limoges, O = TMC, OU = IOT, CN = ACTMC
        Subject Public Key Info:
            Public Key Algorithm: id-ecPublicKey
                Public-Key: (256 bit)
                pub:
                    04:36:25:de:3e:d7:1e:2f:0d:c2:5a:f3:4b:56:ca:
                    94:5c:b8:bb:f6:00:85:35:f7:e1:13:86:d9:54:03:
                    4d:66:2e:93:6c:b9:f9:57:e6:74:9d:35:1d:30:6b:
                    bc:79:29:5e:bd:2c:4c:6a:dc:9a:c8:de:f8:98:e0:
                    09:60:d9:ed:fa
                ASN1 OID: prime256v1
                NIST CURVE: P-256
        X509v3 extensions:
            X509v3 Basic Constraints: 
                CA:TRUE
    Signature Algorithm: ecdsa-with-SHA256
         30:46:02:21:00:c6:46:3a:b6:60:8c:19:ab:76:49:b2:ed:11:
         25:13:2f:98:79:4b:67:11:26:fb:98:8f:1c:7c:f4:2a:cd:2a:
         ab:02:21:00:f3:b0:bb:b9:a1:8f:ca:41:98:ac:1a:f3:05:9a:
         21:6f:e4:a5:ab:12:73:a1:ff:14:23:a8:a0:84:70:73:5d:a9
-----BEGIN CERTIFICATE-----
MIIBqTCCAU6gAwIBAgIUZeOFR4VEjzNoxsXE9NkbPTBCKKUwCgYIKoZIzj0EAwIw
SzELMAkGA1UEBhMCRlIxEDAOBgNVBAcMB0xpbW9nZXMxDDAKBgNVBAoMA1RNQzEM
MAoGA1UECwwDSU9UMQ4wDAYDVQQDDAVBQ1RNQzAeFw0yMDAxMDExODQ3MTFaFw0y
MDAxMzExODQ3MTFaMEsxCzAJBgNVBAYTAkZSMRAwDgYDVQQHDAdMaW1vZ2VzMQww
CgYDVQQKDANUTUMxDDAKBgNVBAsMA0lPVDEOMAwGA1UEAwwFQUNUTUMwWTATBgcq
hkjOPQIBBggqhkjOPQMBBwNCAAQ2Jd4+1x4vDcJa80tWypRcuLv2AIU19+EThtlU
A01mLpNsuflX5nSdNR0wa7x5KV69LExq3JrI3viY4Alg2e36oxAwDjAMBgNVHRME
BTADAQH/MAoGCCqGSM49BAMCA0kAMEYCIQDGRjq2YIwZq3ZJsu0RJRMvmHlLZxEm
+5iPHHz0Ks0qqwIhAPOwu7mhj8pBmKwa8wWaIW/kpasSc6H/FCOooIRwc12p
-----END CERTIFICATE-----
