Certificate:
    Data:
        Version: 3 (0x2)
        Serial Number:
            43:24:86:1f:b2:3a:cd:67:3a:56:e9:ad:b3:a9:7a:7f:b5:bf:41:0c
        Signature Algorithm: ecdsa-with-SHA256
        Issuer: C = FR, L = Limoges, O = TMC, OU = IOT, CN = ACTMC
        Validity
            Not Before: Jan  1 18:53:32 2020 GMT
            Not After : Dec 29 18:53:32 2029 GMT
        Subject: C = FR, L = Limoges, O = TMC, OU = IOT, CN = esp8266
        Subject Public Key Info:
            Public Key Algorithm: id-ecPublicKey
                Public-Key: (256 bit)
                pub:
                    04:ee:39:db:60:98:e8:d1:8f:fd:dc:4e:8c:00:48:
                    bf:89:47:ee:e4:b9:6e:8b:36:93:3b:b9:cc:5a:40:
                    36:68:9f:05:7f:72:7e:60:f1:8f:e6:60:56:a7:04:
                    27:33:41:8e:e5:6d:e2:17:52:f2:a8:41:af:38:0e:
                    9b:bc:8f:28:94
                ASN1 OID: prime256v1
                NIST CURVE: P-256
        X509v3 extensions:
            X509v3 Basic Constraints: critical
                CA:FALSE
    Signature Algorithm: ecdsa-with-SHA256
         30:46:02:21:00:f0:40:d9:57:bd:0d:af:50:4f:b2:25:b6:e1:
         35:f5:ec:ae:05:8b:63:2b:08:e5:01:87:43:06:51:b8:a1:0a:
         15:02:21:00:88:db:f5:34:0b:14:85:d3:27:9a:71:d9:1c:0c:
         85:41:b3:62:bb:23:8a:94:e9:47:7f:8e:a5:e5:f2:1c:bb:3e
Trusted Uses:
  TLS Web Client Authentication
No Rejected Uses.
-----BEGIN TRUSTED CERTIFICATE-----
MIIBqzCCAVCgAwIBAgIUQySGH7I6zWc6Vumts6l6f7W/QQwwCgYIKoZIzj0EAwIw
SzELMAkGA1UEBhMCRlIxEDAOBgNVBAcMB0xpbW9nZXMxDDAKBgNVBAoMA1RNQzEM
MAoGA1UECwwDSU9UMQ4wDAYDVQQDDAVBQ1RNQzAeFw0yMDAxMDExODUzMzJaFw0y
OTEyMjkxODUzMzJaME0xCzAJBgNVBAYTAkZSMRAwDgYDVQQHDAdMaW1vZ2VzMQww
CgYDVQQKDANUTUMxDDAKBgNVBAsMA0lPVDEQMA4GA1UEAwwHZXNwODI2NjBZMBMG
ByqGSM49AgEGCCqGSM49AwEHA0IABO4522CY6NGP/dxOjABIv4lH7uS5bos2kzu5
zFpANmifBX9yfmDxj+ZgVqcEJzNBjuVt4hdS8qhBrzgOm7yPKJSjEDAOMAwGA1Ud
EwEB/wQCMAAwCgYIKoZIzj0EAwIDSQAwRgIhAPBA2Ve9Da9QT7IltuE19eyuBYtj
KwjlAYdDBlG4oQoVAiEAiNv1NAsUhdMnmnHZHAyFQbNiuyOKlOlHf46l5fIcuz4w
DDAKBggrBgEFBQcDAg==
-----END TRUSTED CERTIFICATE-----
