Certificate:
    Data:
        Version: 3 (0x2)
        Serial Number:
            43:24:86:1f:b2:3a:cd:67:3a:56:e9:ad:b3:a9:7a:7f:b5:bf:41:0b
        Signature Algorithm: ecdsa-with-SHA256
        Issuer: C = FR, L = Limoges, O = TMC, OU = IOT, CN = ACTMC
        Validity
            Not Before: Jan  1 18:48:44 2020 GMT
            Not After : Dec 29 18:48:44 2029 GMT
        Subject: C = FR, L = Limoges, O = TMC, OU = IOT, CN = mqtt.com
        Subject Public Key Info:
            Public Key Algorithm: id-ecPublicKey
                Public-Key: (256 bit)
                pub:
                    04:b3:8e:68:77:10:9d:a4:2e:f2:fd:bc:5b:25:92:
                    ae:1e:3b:74:e8:d2:f0:48:8c:9e:02:c0:02:22:3d:
                    81:79:a5:69:99:f6:0a:95:77:2b:52:2f:bc:67:f7:
                    9f:81:a7:f3:78:76:1b:cd:53:f3:ef:70:31:fd:ca:
                    88:60:48:61:9b
                ASN1 OID: prime256v1
                NIST CURVE: P-256
        X509v3 extensions:
            X509v3 Basic Constraints: critical
                CA:FALSE
    Signature Algorithm: ecdsa-with-SHA256
         30:46:02:21:00:d4:87:a5:9f:8b:17:73:5d:74:2c:3d:3b:e8:
         a9:96:cc:7a:3a:53:b6:35:6b:72:2d:46:47:04:74:4f:65:47:
         5d:02:21:00:e5:7c:ae:2e:46:97:cd:8d:b1:cb:e0:a1:e7:6e:
         8d:a8:7d:a3:1a:d4:c8:d7:4d:db:13:57:d8:be:07:90:a9:ec
Trusted Uses:
  TLS Web Client Authentication
No Rejected Uses.
-----BEGIN TRUSTED CERTIFICATE-----
MIIBrDCCAVGgAwIBAgIUQySGH7I6zWc6Vumts6l6f7W/QQswCgYIKoZIzj0EAwIw
SzELMAkGA1UEBhMCRlIxEDAOBgNVBAcMB0xpbW9nZXMxDDAKBgNVBAoMA1RNQzEM
MAoGA1UECwwDSU9UMQ4wDAYDVQQDDAVBQ1RNQzAeFw0yMDAxMDExODQ4NDRaFw0y
OTEyMjkxODQ4NDRaME4xCzAJBgNVBAYTAkZSMRAwDgYDVQQHDAdMaW1vZ2VzMQww
CgYDVQQKDANUTUMxDDAKBgNVBAsMA0lPVDERMA8GA1UEAwwIbXF0dC5jb20wWTAT
BgcqhkjOPQIBBggqhkjOPQMBBwNCAASzjmh3EJ2kLvL9vFslkq4eO3To0vBIjJ4C
wAIiPYF5pWmZ9gqVdytSL7xn95+Bp/N4dhvNU/PvcDH9yohgSGGboxAwDjAMBgNV
HRMBAf8EAjAAMAoGCCqGSM49BAMCA0kAMEYCIQDUh6WfixdzXXQsPTvoqZbMejpT
tjVrci1GRwR0T2VHXQIhAOV8ri5Gl82Nscvgoedujah9oxrUyNdN2xNX2L4HkKns
MAwwCgYIKwYBBQUHAwI=
-----END TRUSTED CERTIFICATE-----
